Certificate:
    Data:
        Version: 3 (0x2)
        Serial Number:
            d7:37:8b:27:33:07:b5:45:5e:ba:89:ad:67:54:b6:19
        Signature Algorithm: sha256WithRSAEncryption
        Issuer: CN=Easy-RSA CA
        Validity
            Not Before: Nov 15 06:49:24 2025 GMT
            Not After : Feb 18 06:49:24 2028 GMT
        Subject: CN=GD001VP
        Subject Public Key Info:
            Public Key Algorithm: rsaEncryption
                Public-Key: (2048 bit)
                Modulus:
                    00:d0:b2:08:82:c7:2f:c5:f9:d2:ae:a9:1f:ca:00:
                    47:97:a1:f6:08:41:45:b6:c7:b5:8a:ce:d9:06:53:
                    38:57:c4:99:de:4b:af:0e:ea:e2:d6:de:86:55:ad:
                    db:b6:93:8d:77:5f:d7:11:6b:5a:76:8d:56:af:54:
                    5a:73:f9:27:5a:73:59:d2:b3:67:02:5d:69:fe:5e:
                    8b:0d:6f:06:dd:d1:70:25:45:17:e2:e6:a6:85:45:
                    8a:d8:d6:f7:32:d4:fe:3b:56:6e:26:d3:73:b1:ef:
                    11:20:74:1d:fd:83:e1:96:70:2e:0f:db:0a:56:73:
                    c4:00:55:19:b9:6b:18:84:88:bf:3d:94:3d:6b:c8:
                    11:d7:0f:33:0c:a5:6b:ba:28:09:bc:51:fb:ff:85:
                    eb:34:70:8a:0e:7e:63:25:77:09:2b:38:e3:32:cb:
                    4a:28:ae:a3:61:22:9f:3b:e8:ac:2f:5a:9a:c9:84:
                    a3:43:4c:e9:25:83:16:3d:15:d4:e6:e8:cb:c3:5c:
                    d2:6f:a0:35:c0:ac:7c:db:f7:65:76:bd:62:77:78:
                    6e:c1:0a:1d:38:ae:eb:b4:51:17:b6:b9:a0:95:5f:
                    cb:8d:46:53:f6:10:1d:bf:ca:6b:14:03:36:b5:dd:
                    2e:2e:8e:af:67:d1:f6:be:d2:7f:dd:49:d1:bf:0d:
                    0e:17
                Exponent: 65537 (0x10001)
        X509v3 extensions:
            X509v3 Basic Constraints: 
                CA:FALSE
            X509v3 Subject Key Identifier: 
                00:0C:4C:62:10:10:44:14:03:91:96:7A:C4:81:43:22:4E:80:BA:05
            X509v3 Authority Key Identifier: 
                keyid:54:04:DB:05:EA:38:20:80:A8:E5:9C:D6:81:94:BE:B3:6C:F2:66:58
                DirName:/CN=Easy-RSA CA
                serial:1A:90:27:C1:12:1C:F8:1E:10:A2:4B:DA:67:C0:A8:3D:75:1F:54:AF
            X509v3 Extended Key Usage: 
                TLS Web Client Authentication
            X509v3 Key Usage: 
                Digital Signature
    Signature Algorithm: sha256WithRSAEncryption
    Signature Value:
        74:b0:6b:d3:23:b6:30:95:95:11:06:8b:6c:2a:f6:f3:a0:40:
        5b:f0:0b:ed:57:af:70:85:6e:44:69:c2:0e:82:6f:d4:96:6c:
        e5:d3:c5:77:3a:a7:7b:a1:f9:28:15:5e:94:f7:d8:69:57:a2:
        41:6d:70:50:b4:3c:b0:a8:0f:45:69:61:73:e2:eb:aa:a0:c4:
        92:9e:fb:7f:94:06:24:55:e3:8f:4e:bf:72:5e:b6:e3:6a:11:
        f0:74:0d:45:ac:ad:4d:4e:76:0d:8d:6e:d5:1b:e1:23:86:5e:
        57:dd:42:59:79:e0:84:69:56:8f:c0:1c:c2:8b:9c:5c:62:eb:
        1a:58:c4:05:ce:7f:e9:58:79:39:2a:3d:1d:47:56:2e:63:17:
        95:57:f8:00:e7:45:65:e2:da:4f:0e:ec:e4:61:b1:15:27:39:
        5f:33:8e:ad:2e:0e:41:ed:45:3d:ae:51:ff:96:8a:23:55:4f:
        46:d6:46:1d:3a:b8:4c:3f:44:42:5f:7b:5c:23:20:c3:e7:f3:
        0c:5e:b3:16:27:14:76:34:41:bc:aa:41:ca:88:d2:fe:c4:61:
        bd:c8:63:58:02:42:df:f9:d2:d0:5b:a9:9d:97:24:60:c5:c9:
        ef:7d:56:f9:a0:40:f9:46:b4:6f:64:26:55:25:6c:b3:9f:60:
        49:93:0e:84
-----BEGIN CERTIFICATE-----
MIIDVjCCAj6gAwIBAgIRANc3iyczB7VFXrqJrWdUthkwDQYJKoZIhvcNAQELBQAw
FjEUMBIGA1UEAwwLRWFzeS1SU0EgQ0EwHhcNMjUxMTE1MDY0OTI0WhcNMjgwMjE4
MDY0OTI0WjASMRAwDgYDVQQDDAdHRDAwMVZQMIIBIjANBgkqhkiG9w0BAQEFAAOC
AQ8AMIIBCgKCAQEA0LIIgscvxfnSrqkfygBHl6H2CEFFtse1is7ZBlM4V8SZ3kuv
Duri1t6GVa3btpONd1/XEWtado1Wr1Rac/knWnNZ0rNnAl1p/l6LDW8G3dFwJUUX
4uamhUWK2Nb3MtT+O1ZuJtNzse8RIHQd/YPhlnAuD9sKVnPEAFUZuWsYhIi/PZQ9
a8gR1w8zDKVruigJvFH7/4XrNHCKDn5jJXcJKzjjMstKKK6jYSKfO+isL1qayYSj
Q0zpJYMWPRXU5ujLw1zSb6A1wKx82/dldr1id3huwQodOK7rtFEXtrmglV/LjUZT
9hAdv8prFAM2td0uLo6vZ9H2vtJ/3UnRvw0OFwIDAQABo4GiMIGfMAkGA1UdEwQC
MAAwHQYDVR0OBBYEFAAMTGIQEEQUA5GWesSBQyJOgLoFMFEGA1UdIwRKMEiAFFQE
2wXqOCCAqOWc1oGUvrNs8mZYoRqkGDAWMRQwEgYDVQQDDAtFYXN5LVJTQSBDQYIU
GpAnwRIc+B4QokvaZ8CoPXUfVK8wEwYDVR0lBAwwCgYIKwYBBQUHAwIwCwYDVR0P
BAQDAgeAMA0GCSqGSIb3DQEBCwUAA4IBAQB0sGvTI7YwlZURBotsKvbzoEBb8Avt
V69whW5EacIOgm/Ulmzl08V3Oqd7ofkoFV6U99hpV6JBbXBQtDywqA9FaWFz4uuq
oMSSnvt/lAYkVeOPTr9yXrbjahHwdA1FrK1NTnYNjW7VG+Ejhl5X3UJZeeCEaVaP
wBzCi5xcYusaWMQFzn/pWHk5Kj0dR1YuYxeVV/gA50Vl4tpPDuzkYbEVJzlfM46t
Lg5B7UU9rlH/loojVU9G1kYdOrhMP0RCX3tcIyDD5/MMXrMWJxR2NEG8qkHKiNL+
xGG9yGNYAkLf+dLQW6mdlyRgxcnvfVb5oED5RrRvZCZVJWyzn2BJkw6E
-----END CERTIFICATE-----
